target datalayout = "e-m:e-p270:32:32-p271:32:32-p272:64:64-i64:64-i128:128-f80:128-n8:16:32:64-S128"
target triple = "x86_64-unknown-linux-gnu"

%struct.V9fsQID = type { i8, i32, i64 }

@.str.43 = private unnamed_addr constant [2 x i8] c"Q\00", align 1
@.str.127 = private unnamed_addr constant [2 x i8] c"w\00", align 1

; Function Attrs: nounwind sspstrong uwtable
define internal i32 @v9fs_walk_marshal(ptr noundef %pdu, i16 noundef zeroext %nwnames, ptr noundef %qids) #0 {
entry:
  %retval = alloca i32, align 4
  %pdu.addr = alloca ptr, align 8
  %nwnames.addr = alloca i16, align 2
  %qids.addr = alloca ptr, align 8
  %i = alloca i32, align 4
  %err = alloca i64, align 8
  %offset = alloca i64, align 8
  store ptr %pdu, ptr %pdu.addr, align 8
  store i16 %nwnames, ptr %nwnames.addr, align 2
  store ptr %qids, ptr %qids.addr, align 8
  store i64 7, ptr %offset, align 8
  %0 = load ptr, ptr %pdu.addr, align 8
  %1 = load i64, ptr %offset, align 8
  %2 = load i16, ptr %nwnames.addr, align 2
  %conv = zext i16 %2 to i32
  %call = call i64 (ptr, i64, ptr, ...) @pdu_marshal(ptr noundef %0, i64 noundef %1, ptr noundef @.str.127, i32 noundef %conv)
  store i64 %call, ptr %err, align 8
  %3 = load i64, ptr %err, align 8
  %cmp = icmp slt i64 %3, 0
  br i1 %cmp, label %if.then, label %if.end

if.then:                                          ; preds = %entry
  %4 = load i64, ptr %err, align 8
  %conv2 = trunc i64 %4 to i32
  store i32 %conv2, ptr %retval, align 4
  br label %return

if.end:                                           ; preds = %entry
  %5 = load i64, ptr %err, align 8
  %6 = load i64, ptr %offset, align 8
  %add = add i64 %6, %5
  store i64 %add, ptr %offset, align 8
  store i32 0, ptr %i, align 4
  br label %for.cond

for.cond:                                         ; preds = %for.inc, %if.end
  %7 = load i32, ptr %i, align 4
  %8 = load i16, ptr %nwnames.addr, align 2
  %conv3 = zext i16 %8 to i32
  %cmp4 = icmp slt i32 %7, %conv3
  br i1 %cmp4, label %for.body, label %for.end

for.body:                                         ; preds = %for.cond
  %9 = load ptr, ptr %pdu.addr, align 8
  %10 = load i64, ptr %offset, align 8
  %11 = load ptr, ptr %qids.addr, align 8
  %12 = load i32, ptr %i, align 4
  %idxprom = sext i32 %12 to i64
  %arrayidx = getelementptr %struct.V9fsQID, ptr %11, i64 %idxprom
  %call6 = call i64 (ptr, i64, ptr, ...) @pdu_marshal(ptr noundef %9, i64 noundef %10, ptr noundef @.str.43, ptr noundef %arrayidx)
  store i64 %call6, ptr %err, align 8
  %13 = load i64, ptr %err, align 8
  %cmp7 = icmp slt i64 %13, 0
  br i1 %cmp7, label %if.then9, label %if.end11

if.then9:                                         ; preds = %for.body
  %14 = load i64, ptr %err, align 8
  %conv10 = trunc i64 %14 to i32
  store i32 %conv10, ptr %retval, align 4
  br label %return

if.end11:                                         ; preds = %for.body
  %15 = load i64, ptr %err, align 8
  %16 = load i64, ptr %offset, align 8
  %add12 = add i64 %16, %15
  store i64 %add12, ptr %offset, align 8
  br label %for.inc

for.inc:                                          ; preds = %if.end11
  %17 = load i32, ptr %i, align 4
  %inc = add i32 %17, 1
  store i32 %inc, ptr %i, align 4
  br label %for.cond, !llvm.loop !32

for.end:                                          ; preds = %for.cond
  %18 = load i64, ptr %offset, align 8
  %conv13 = trunc i64 %18 to i32
  store i32 %conv13, ptr %retval, align 4
  br label %return

return:                                           ; preds = %for.end, %if.then9, %if.then
  %19 = load i32, ptr %retval, align 4
  ret i32 %19
}