; Function Attrs: nounwind sspstrong uwtable
define internal fastcc i32 @v9fs_walk_marshal(ptr noundef %pdu, i16 noundef zeroext %nwnames, ptr noundef %qids) unnamed_addr #0 {
entry:
  %conv = zext i16 %nwnames to i32
  %call = tail call i64 (ptr, i64, ptr, ...) @pdu_marshal(ptr noundef %pdu, i64 noundef 7, ptr noundef nonnull @.str.127, i32 noundef %conv)
  %cmp = icmp slt i64 %call, 0
  br i1 %cmp, label %return, label %if.end

if.end:                                           ; preds = %entry
  %add = add nuw i64 %call, 7
  %cmp414.not = icmp eq i16 %nwnames, 0
  br i1 %cmp414.not, label %return, label %for.body.preheader

for.body.preheader:                               ; preds = %if.end
  %wide.trip.count = zext i16 %nwnames to i64
  br label %for.body

for.body:                                         ; preds = %for.body.preheader, %if.end11
  %indvars.iv = phi i64 [ 0, %for.body.preheader ], [ %indvars.iv.next, %if.end11 ]
  %offset.016 = phi i64 [ %add, %for.body.preheader ], [ %add12, %if.end11 ]
  %arrayidx = getelementptr %struct.V9fsQID, ptr %qids, i64 %indvars.iv
  %call6 = tail call i64 (ptr, i64, ptr, ...) @pdu_marshal(ptr noundef %pdu, i64 noundef %offset.016, ptr noundef nonnull @.str.43, ptr noundef %arrayidx)
  %cmp7 = icmp slt i64 %call6, 0
  br i1 %cmp7, label %return, label %if.end11

if.end11:                                         ; preds = %for.body
  %add12 = add i64 %call6, %offset.016
  %indvars.iv.next = add nuw nsw i64 %indvars.iv, 1
  %exitcond.not = icmp eq i64 %indvars.iv.next, %wide.trip.count
  br i1 %exitcond.not, label %return, label %for.body, !llvm.loop !42

return:                                           ; preds = %for.body, %if.end11, %if.end, %entry
  %retval.0.in = phi i64 [ %call, %entry ], [ %add, %if.end ], [ %call6, %for.body ], [ %add12, %if.end11 ]
  %retval.0 = trunc i64 %retval.0.in to i32
  ret i32 %retval.0
}